; Function Attrs: nounwind uwtable
define dso_local void @bf_move(ptr noundef captures(address) %0, ptr noundef readonly captures(address) %1) local_unnamed_addr #2 {
  %3 = icmp eq ptr %0, %1
  br i1 %3, label %11, label %4

4:                                                ; preds = %2
  %5 = getelementptr inbounds nuw i8, ptr %0, i64 32
  %6 = load ptr, ptr %5, align 8, !tbaa !29
  %.not.i = icmp eq ptr %6, null
  br i1 %.not.i, label %bf_free.exit, label %7

7:                                                ; preds = %4
  %8 = load ptr, ptr %0, align 8, !tbaa !28
  %.val.i = load ptr, ptr %8, align 8, !tbaa !19
  %9 = getelementptr i8, ptr %8, i64 8
  %.val3.i = load ptr, ptr %9, align 8, !tbaa !7
  %10 = tail call ptr %.val3.i(ptr noundef %.val.i, ptr noundef nonnull %6, i64 noundef 0) #21
  br label %bf_free.exit

bf_free.exit:                                     ; preds = %4, %7
  tail call void @llvm.memcpy.p0.p0.i64(ptr noundef nonnull align 8 dereferenceable(40) %0, ptr noundef nonnull align 8 dereferenceable(40) %1, i64 40, i1 false), !tbaa.struct !34
  br label %11

11:                                               ; preds = %2, %bf_free.exit
  ret void
}